target datalayout = "e-m:e-p270:32:32-p271:32:32-p272:64:64-i64:64-i128:128-f80:128-n8:16:32:64-S128"
target triple = "x86_64-pc-linux-gnu"

%"struct.pkpy::Dict" = type { ptr, i32, i32, i32, i32, i32, i32, ptr, ptr }
%"struct.pkpy::Dict::Item" = type { ptr, ptr }
%"struct.pkpy::Dict::ItemNode" = type { i32, i32 }
%class.anon = type { ptr }

; Function Attrs: mustprogress uwtable
define void @_ZN4pkpy4Dict3setEPNS_8PyObjectES2_(ptr noundef nonnull align 8 dereferenceable(48) %0, ptr noundef %1, ptr noundef %2) #7 align 2 {
  %4 = alloca ptr, align 8
  %5 = alloca ptr, align 8
  %6 = alloca ptr, align 8
  %7 = alloca i8, align 1
  %8 = alloca i32, align 4
  store ptr %0, ptr %4, align 8
  store ptr %1, ptr %5, align 8
  store ptr %2, ptr %6, align 8
  %9 = load ptr, ptr %4, align 8
  %10 = getelementptr inbounds %"struct.pkpy::Dict", ptr %9, i32 0, i32 3
  %11 = load i32, ptr %10, align 8
  %12 = add nsw i32 %11, 1
  %13 = getelementptr inbounds %"struct.pkpy::Dict", ptr %9, i32 0, i32 4
  %14 = load i32, ptr %13, align 4
  %15 = icmp sgt i32 %12, %14
  br i1 %15, label %16, label %17

16:                                               ; preds = %3
  call void @_ZN4pkpy4Dict7_rehashEv(ptr noundef nonnull align 8 dereferenceable(48) %9)
  br label %17

17:                                               ; preds = %16, %3
  %18 = load ptr, ptr %5, align 8
  call void @_ZNK4pkpy4Dict8_probe_1EPNS_8PyObjectERbRi(ptr noundef nonnull align 8 dereferenceable(48) %9, ptr noundef %18, ptr noundef nonnull align 1 dereferenceable(1) %7, ptr noundef nonnull align 4 dereferenceable(4) %8)
  %19 = load i8, ptr %7, align 1
  %20 = trunc i8 %19 to i1
  br i1 %20, label %60, label %21

21:                                               ; preds = %17
  %22 = getelementptr inbounds %"struct.pkpy::Dict", ptr %9, i32 0, i32 3
  %23 = load i32, ptr %22, align 8
  %24 = add nsw i32 %23, 1
  store i32 %24, ptr %22, align 8
  %25 = load ptr, ptr %5, align 8
  %26 = getelementptr inbounds %"struct.pkpy::Dict", ptr %9, i32 0, i32 7
  %27 = load ptr, ptr %26, align 8
  %28 = load i32, ptr %8, align 4
  %29 = sext i32 %28 to i64
  %30 = getelementptr inbounds %"struct.pkpy::Dict::Item", ptr %27, i64 %29
  %31 = getelementptr inbounds %"struct.pkpy::Dict::Item", ptr %30, i32 0, i32 0
  store ptr %25, ptr %31, align 8
  %32 = getelementptr inbounds %"struct.pkpy::Dict", ptr %9, i32 0, i32 3
  %33 = load i32, ptr %32, align 8
  %34 = icmp eq i32 %33, 1
  br i1 %34, label %35, label %40

35:                                               ; preds = %21
  %36 = load i32, ptr %8, align 4
  %37 = getelementptr inbounds %"struct.pkpy::Dict", ptr %9, i32 0, i32 5
  store i32 %36, ptr %37, align 8
  %38 = load i32, ptr %8, align 4
  %39 = getelementptr inbounds %"struct.pkpy::Dict", ptr %9, i32 0, i32 6
  store i32 %38, ptr %39, align 4
  br label %59

40:                                               ; preds = %21
  %41 = getelementptr inbounds %"struct.pkpy::Dict", ptr %9, i32 0, i32 6
  %42 = load i32, ptr %41, align 4
  %43 = getelementptr inbounds %"struct.pkpy::Dict", ptr %9, i32 0, i32 8
  %44 = load ptr, ptr %43, align 8
  %45 = load i32, ptr %8, align 4
  %46 = sext i32 %45 to i64
  %47 = getelementptr inbounds %"struct.pkpy::Dict::ItemNode", ptr %44, i64 %46
  %48 = getelementptr inbounds %"struct.pkpy::Dict::ItemNode", ptr %47, i32 0, i32 0
  store i32 %42, ptr %48, align 4
  %49 = load i32, ptr %8, align 4
  %50 = getelementptr inbounds %"struct.pkpy::Dict", ptr %9, i32 0, i32 8
  %51 = load ptr, ptr %50, align 8
  %52 = getelementptr inbounds %"struct.pkpy::Dict", ptr %9, i32 0, i32 6
  %53 = load i32, ptr %52, align 4
  %54 = sext i32 %53 to i64
  %55 = getelementptr inbounds %"struct.pkpy::Dict::ItemNode", ptr %51, i64 %54
  %56 = getelementptr inbounds %"struct.pkpy::Dict::ItemNode", ptr %55, i32 0, i32 1
  store i32 %49, ptr %56, align 4
  %57 = load i32, ptr %8, align 4
  %58 = getelementptr inbounds %"struct.pkpy::Dict", ptr %9, i32 0, i32 6
  store i32 %57, ptr %58, align 4
  br label %59

59:                                               ; preds = %40, %35
  br label %60

60:                                               ; preds = %59, %17
  %61 = load ptr, ptr %6, align 8
  %62 = getelementptr inbounds %"struct.pkpy::Dict", ptr %9, i32 0, i32 7
  %63 = load ptr, ptr %62, align 8
  %64 = load i32, ptr %8, align 4
  %65 = sext i32 %64 to i64
  %66 = getelementptr inbounds %"struct.pkpy::Dict::Item", ptr %63, i64 %65
  %67 = getelementptr inbounds %"struct.pkpy::Dict::Item", ptr %66, i32 0, i32 1
  store ptr %61, ptr %67, align 8
  ret void
}

; Function Attrs: mustprogress uwtable
define internal void @"_ZZN4pkpy4Dict6updateERKS0_ENK3$_0clEPNS_8PyObjectES5_"(ptr noundef nonnull align 8 dereferenceable(8) %0, ptr noundef %1, ptr noundef %2) #7 align 2 {
  %4 = alloca ptr, align 8
  %5 = alloca ptr, align 8
  %6 = alloca ptr, align 8
  store ptr %0, ptr %4, align 8
  store ptr %1, ptr %5, align 8
  store ptr %2, ptr %6, align 8
  %7 = load ptr, ptr %4, align 8
  %8 = getelementptr inbounds %class.anon, ptr %7, i32 0, i32 0
  %9 = load ptr, ptr %8, align 8
  %10 = load ptr, ptr %5, align 8
  %11 = load ptr, ptr %6, align 8
  call void @_ZN4pkpy4Dict3setEPNS_8PyObjectES2_(ptr noundef nonnull align 8 dereferenceable(48) %9, ptr noundef %10, ptr noundef %11)
  ret void
}

; Function Attrs: mustprogress uwtable
define internal void @"_ZNK4pkpy4Dict5applyIZNS0_6updateERKS0_E3$_0EEvT_"(ptr noundef nonnull align 8 dereferenceable(48) %0, ptr %1) #7 align 2 {
  %3 = alloca %class.anon, align 8
  %4 = alloca ptr, align 8
  %5 = alloca i32, align 4
  %6 = getelementptr inbounds %class.anon, ptr %3, i32 0, i32 0
  store ptr %1, ptr %6, align 8
  store ptr %0, ptr %4, align 8
  %7 = load ptr, ptr %4, align 8
  %8 = getelementptr inbounds %"struct.pkpy::Dict", ptr %7, i32 0, i32 5
  %9 = load i32, ptr %8, align 8
  store i32 %9, ptr %5, align 4
  br label %10

10:                                               ; preds = %13, %2
  %11 = load i32, ptr %5, align 4
  %12 = icmp ne i32 %11, -1
  br i1 %12, label %13, label %35

13:                                               ; preds = %10
  %14 = getelementptr inbounds %"struct.pkpy::Dict", ptr %7, i32 0, i32 7
  %15 = load ptr, ptr %14, align 8
  %16 = load i32, ptr %5, align 4
  %17 = sext i32 %16 to i64
  %18 = getelementptr inbounds %"struct.pkpy::Dict::Item", ptr %15, i64 %17
  %19 = getelementptr inbounds %"struct.pkpy::Dict::Item", ptr %18, i32 0, i32 0
  %20 = load ptr, ptr %19, align 8
  %21 = getelementptr inbounds %"struct.pkpy::Dict", ptr %7, i32 0, i32 7
  %22 = load ptr, ptr %21, align 8
  %23 = load i32, ptr %5, align 4
  %24 = sext i32 %23 to i64
  %25 = getelementptr inbounds %"struct.pkpy::Dict::Item", ptr %22, i64 %24
  %26 = getelementptr inbounds %"struct.pkpy::Dict::Item", ptr %25, i32 0, i32 1
  %27 = load ptr, ptr %26, align 8
  call void @"_ZZN4pkpy4Dict6updateERKS0_ENK3$_0clEPNS_8PyObjectES5_"(ptr noundef nonnull align 8 dereferenceable(8) %3, ptr noundef %20, ptr noundef %27)
  %28 = getelementptr inbounds %"struct.pkpy::Dict", ptr %7, i32 0, i32 8
  %29 = load ptr, ptr %28, align 8
  %30 = load i32, ptr %5, align 4
  %31 = sext i32 %30 to i64
  %32 = getelementptr inbounds %"struct.pkpy::Dict::ItemNode", ptr %29, i64 %31
  %33 = getelementptr inbounds %"struct.pkpy::Dict::ItemNode", ptr %32, i32 0, i32 1
  %34 = load i32, ptr %33, align 4
  store i32 %34, ptr %5, align 4
  br label %10, !llvm.loop !6

35:                                               ; preds = %10
  ret void
}

; Function Attrs: mustprogress uwtable
define void @_ZN4pkpy4Dict6updateERKS0_(ptr noundef nonnull align 8 dereferenceable(48) %0, ptr noundef nonnull align 8 dereferenceable(48) %1) #7 align 2 {
  %3 = alloca ptr, align 8
  %4 = alloca ptr, align 8
  %5 = alloca %class.anon, align 8
  store ptr %0, ptr %3, align 8
  store ptr %1, ptr %4, align 8
  %6 = load ptr, ptr %3, align 8
  %7 = load ptr, ptr %4, align 8
  %8 = getelementptr inbounds %class.anon, ptr %5, i32 0, i32 0
  store ptr %6, ptr %8, align 8
  %9 = getelementptr inbounds %class.anon, ptr %5, i32 0, i32 0
  %10 = load ptr, ptr %9, align 8
  call void @"_ZNK4pkpy4Dict5applyIZNS0_6updateERKS0_E3$_0EEvT_"(ptr noundef nonnull align 8 dereferenceable(48) %7, ptr %10)
  ret void
}