; Function Attrs: mustprogress uwtable
define void @_ZN4pkpy4Dict6updateERKS0_(ptr noundef nonnull align 8 dereferenceable(48) %0, ptr nocapture noundef nonnull readonly align 8 dereferenceable(48) %1) local_unnamed_addr #7 align 2 {
  %3 = alloca i8, align 1
  %4 = alloca i32, align 4
  %5 = getelementptr inbounds i8, ptr %1, i64 24
  %.04.i = load i32, ptr %5, align 8
  %.not5.i = icmp eq i32 %.04.i, -1
  br i1 %.not5.i, label %"_ZNK4pkpy4Dict5applyIZNS0_6updateERKS0_E3$_0EEvT_.exit", label %.lr.ph.i

.lr.ph.i:                                         ; preds = %2
  %6 = getelementptr inbounds i8, ptr %1, i64 32
  %7 = getelementptr inbounds i8, ptr %0, i64 16
  %8 = getelementptr inbounds i8, ptr %0, i64 20
  %9 = getelementptr inbounds i8, ptr %0, i64 32
  %10 = getelementptr inbounds i8, ptr %0, i64 28
  %11 = getelementptr inbounds i8, ptr %0, i64 40
  %12 = getelementptr inbounds i8, ptr %0, i64 24
  %13 = getelementptr inbounds i8, ptr %1, i64 40
  br label %14

14:                                               ; preds = %"_ZZN4pkpy4Dict6updateERKS0_ENK3$_0clEPNS_8PyObjectES5_.exit.i", %.lr.ph.i
  %.06.i = phi i32 [ %.04.i, %.lr.ph.i ], [ %.0.i, %"_ZZN4pkpy4Dict6updateERKS0_ENK3$_0clEPNS_8PyObjectES5_.exit.i" ]
  %15 = load ptr, ptr %6, align 8
  %16 = sext i32 %.06.i to i64
  %17 = getelementptr inbounds %"struct.pkpy::Dict::Item", ptr %15, i64 %16
  %18 = load ptr, ptr %17, align 8
  %19 = getelementptr inbounds i8, ptr %17, i64 8
  %20 = load ptr, ptr %19, align 8
  call void @llvm.lifetime.start.p0(i64 1, ptr nonnull %3)
  call void @llvm.lifetime.start.p0(i64 4, ptr nonnull %4)
  %21 = load i32, ptr %7, align 8
  %22 = load i32, ptr %8, align 4
  %.not.i.i.i = icmp slt i32 %21, %22
  br i1 %.not.i.i.i, label %24, label %23

23:                                               ; preds = %14
  call void @_ZN4pkpy4Dict7_rehashEv(ptr noundef nonnull align 8 dereferenceable(48) %0)
  br label %24

24:                                               ; preds = %23, %14
  call void @_ZNK4pkpy4Dict8_probe_1EPNS_8PyObjectERbRi(ptr noundef nonnull align 8 dereferenceable(48) %0, ptr noundef %18, ptr noundef nonnull align 1 dereferenceable(1) %3, ptr noundef nonnull align 4 dereferenceable(4) %4)
  %25 = load i8, ptr %3, align 1
  %26 = trunc i8 %25 to i1
  %.pre.i.i.i = load i32, ptr %4, align 4
  br i1 %26, label %"_ZZN4pkpy4Dict6updateERKS0_ENK3$_0clEPNS_8PyObjectES5_.exit.i", label %27

27:                                               ; preds = %24
  %28 = load i32, ptr %7, align 8
  %29 = add nsw i32 %28, 1
  store i32 %29, ptr %7, align 8
  %30 = load ptr, ptr %9, align 8
  %31 = sext i32 %.pre.i.i.i to i64
  %32 = getelementptr inbounds %"struct.pkpy::Dict::Item", ptr %30, i64 %31
  store ptr %18, ptr %32, align 8
  %33 = load i32, ptr %7, align 8
  %34 = icmp eq i32 %33, 1
  br i1 %34, label %35, label %36

35:                                               ; preds = %27
  store i32 %.pre.i.i.i, ptr %12, align 8
  br label %"_ZZN4pkpy4Dict6updateERKS0_ENK3$_0clEPNS_8PyObjectES5_.exit.sink.split.i"

36:                                               ; preds = %27
  %37 = load i32, ptr %10, align 4
  %38 = load ptr, ptr %11, align 8
  %39 = getelementptr inbounds %"struct.pkpy::Dict::ItemNode", ptr %38, i64 %31
  store i32 %37, ptr %39, align 4
  %40 = load i32, ptr %4, align 4
  %41 = load ptr, ptr %11, align 8
  %42 = sext i32 %37 to i64
  %43 = getelementptr inbounds %"struct.pkpy::Dict::ItemNode", ptr %41, i64 %42, i32 1
  store i32 %40, ptr %43, align 4
  br label %"_ZZN4pkpy4Dict6updateERKS0_ENK3$_0clEPNS_8PyObjectES5_.exit.sink.split.i"

"_ZZN4pkpy4Dict6updateERKS0_ENK3$_0clEPNS_8PyObjectES5_.exit.sink.split.i": ; preds = %36, %35
  %.pre.i.i.sink.i = phi i32 [ %.pre.i.i.i, %35 ], [ %40, %36 ]
  store i32 %.pre.i.i.sink.i, ptr %10, align 4
  br label %"_ZZN4pkpy4Dict6updateERKS0_ENK3$_0clEPNS_8PyObjectES5_.exit.i"

"_ZZN4pkpy4Dict6updateERKS0_ENK3$_0clEPNS_8PyObjectES5_.exit.i": ; preds = %"_ZZN4pkpy4Dict6updateERKS0_ENK3$_0clEPNS_8PyObjectES5_.exit.sink.split.i", %24
  %44 = phi i32 [ %.pre.i.i.i, %24 ], [ %.pre.i.i.sink.i, %"_ZZN4pkpy4Dict6updateERKS0_ENK3$_0clEPNS_8PyObjectES5_.exit.sink.split.i" ]
  %45 = load ptr, ptr %9, align 8
  %46 = sext i32 %44 to i64
  %47 = getelementptr inbounds %"struct.pkpy::Dict::Item", ptr %45, i64 %46, i32 1
  store ptr %20, ptr %47, align 8
  call void @llvm.lifetime.end.p0(i64 1, ptr nonnull %3)
  call void @llvm.lifetime.end.p0(i64 4, ptr nonnull %4)
  %48 = load ptr, ptr %13, align 8
  %49 = getelementptr inbounds %"struct.pkpy::Dict::ItemNode", ptr %48, i64 %16, i32 1
  %.0.i = load i32, ptr %49, align 4
  %.not.i = icmp eq i32 %.0.i, -1
  br i1 %.not.i, label %"_ZNK4pkpy4Dict5applyIZNS0_6updateERKS0_E3$_0EEvT_.exit", label %14, !llvm.loop !6

"_ZNK4pkpy4Dict5applyIZNS0_6updateERKS0_E3$_0EEvT_.exit": ; preds = %"_ZZN4pkpy4Dict6updateERKS0_ENK3$_0clEPNS_8PyObjectES5_.exit.i", %2
  ret void
}